target datalayout = "e-m:e-p270:32:32-p271:32:32-p272:64:64-i64:64-i128:128-f80:128-n8:16:32:64-S128"
target triple = "x86_64-unknown-linux-gnu"

%"struct.node::AssertionInfo" = type { ptr, ptr, ptr }
%"class.v8::IndirectHandleBase" = type { ptr }
%"class.node::MemoryRetainer" = type { ptr }
%struct.uv__queue = type { ptr, ptr }
%"class.std::__cxx11::basic_string" = type { %"struct.std::__cxx11::basic_string<char>::_Alloc_hider", i64, %union.anon.91 }
%"struct.std::__cxx11::basic_string<char>::_Alloc_hider" = type { ptr }
%union.anon.91 = type { i64, [8 x i8] }
%"class.node::AsyncWrap" = type { %"class.node::BaseObject", i32, i8, double, double }
%"class.node::BaseObject" = type { %"class.node::MemoryRetainer", %"class.v8::Global.269", ptr, ptr }
%"class.v8::Global.269" = type { %"class.v8::PersistentBase.270" }
%"class.v8::PersistentBase.270" = type { %"class.v8::IndirectHandleBase" }
%"class.node::ThreadPoolWork" = type { ptr, ptr, %struct.uv_work_s, ptr }
%struct.uv_work_s = type { ptr, i32, [6 x ptr], ptr, ptr, ptr, %struct.uv__work }
%struct.uv__work = type { ptr, ptr, ptr, %struct.uv__queue }
%"struct.std::atomic.271" = type { %"struct.std::__atomic_base.272" }
%"struct.std::__atomic_base.272" = type { i64 }
%"class.node::(anonymous namespace)::BrotliContext" = type { %"class.node::MemoryRetainer", i32, ptr, ptr, i64, i64, i32, ptr, ptr, ptr }
%"class.node::(anonymous namespace)::CompressionStream.428" = type { %"class.node::AsyncWrap", %"class.node::ThreadPoolWork", i8, i8, i8, i8, i32, ptr, %"struct.std::atomic.271", i64, %"class.node::(anonymous namespace)::BrotliDecoderContext" }
%"class.node::(anonymous namespace)::BrotliDecoderContext" = type { %"class.node::(anonymous namespace)::BrotliContext", i32, i32, %"class.std::__cxx11::basic_string", %"class.std::unique_ptr.429" }
%"class.std::unique_ptr.429" = type { %"struct.std::__uniq_ptr_data.430" }
%"struct.std::__uniq_ptr_data.430" = type { %"class.std::__uniq_ptr_impl.431" }
%"class.std::__uniq_ptr_impl.431" = type { %"class.std::tuple.432" }
%"class.std::tuple.432" = type { %"struct.std::_Tuple_impl.433" }
%"struct.std::_Tuple_impl.433" = type { %"struct.std::_Head_base.436" }
%"struct.std::_Head_base.436" = type { ptr }

@_ZZN4node25MultiplyWithOverflowCheckImEET_S1_S1_E4args = linkonce_odr dso_local constant %"struct.node::AssertionInfo" { ptr @.str.240, ptr @.str.241, ptr @.str.242 }, comdat, align 8

; Function Attrs: mustprogress nounwind uwtable
define linkonce_odr dso_local noundef i64 @_ZN4node25MultiplyWithOverflowCheckImEET_S1_S1_(i64 noundef %a, i64 noundef %b) #4 comdat {
entry:
  %a.addr = alloca i64, align 8
  %b.addr = alloca i64, align 8
  %ret = alloca i64, align 8
  store i64 %a, ptr %a.addr, align 8
  store i64 %b, ptr %b.addr, align 8
  %0 = load i64, ptr %a.addr, align 8
  %1 = load i64, ptr %b.addr, align 8
  %mul = mul i64 %0, %1
  store i64 %mul, ptr %ret, align 8
  %2 = load i64, ptr %a.addr, align 8
  %cmp = icmp ne i64 %2, 0
  br i1 %cmp, label %if.then, label %if.end7

if.then:                                          ; preds = %entry
  br label %do.body

do.body:                                          ; preds = %if.then
  %3 = load i64, ptr %b.addr, align 8
  %4 = load i64, ptr %ret, align 8
  %5 = load i64, ptr %a.addr, align 8
  %div = udiv i64 %4, %5
  %cmp1 = icmp eq i64 %3, %div
  %lnot = xor i1 %cmp1, true
  %lnot2 = xor i1 %lnot, true
  %lnot3 = xor i1 %lnot2, true
  br i1 %lnot3, label %if.then4, label %if.end

if.then4:                                         ; preds = %do.body
  br label %do.body5

do.body5:                                         ; preds = %if.then4
  call void @_ZN4node6AssertERKNS_13AssertionInfoE(ptr noundef nonnull align 8 dereferenceable(24) @_ZZN4node25MultiplyWithOverflowCheckImEET_S1_S1_E4args)
  call void @abort() #13
  unreachable

do.end:                                           ; No predecessors!
  br label %if.end

if.end:                                           ; preds = %do.end, %do.body
  br label %do.end6

do.end6:                                          ; preds = %if.end
  br label %if.end7

if.end7:                                          ; preds = %do.end6, %entry
  %6 = load i64, ptr %ret, align 8
  ret i64 %6
}

; Function Attrs: mustprogress nounwind uwtable
define linkonce_odr dso_local noundef ptr @_ZN4node16UncheckedReallocIcEEPT_S2_m(ptr noundef %pointer, i64 noundef %n) #4 comdat {
entry:
  %retval = alloca ptr, align 8
  %pointer.addr = alloca ptr, align 8
  %n.addr = alloca i64, align 8
  %full_size = alloca i64, align 8
  %allocated = alloca ptr, align 8
  store ptr %pointer, ptr %pointer.addr, align 8
  store i64 %n, ptr %n.addr, align 8
  %0 = load i64, ptr %n.addr, align 8
  %call = call noundef i64 @_ZN4node25MultiplyWithOverflowCheckImEET_S1_S1_(i64 noundef 1, i64 noundef %0)
  store i64 %call, ptr %full_size, align 8
  %1 = load i64, ptr %full_size, align 8
  %cmp = icmp eq i64 %1, 0
  br i1 %cmp, label %if.then, label %if.end

if.then:                                          ; preds = %entry
  %2 = load ptr, ptr %pointer.addr, align 8
  call void @free(ptr noundef %2) #3
  store ptr null, ptr %retval, align 8
  br label %return

if.end:                                           ; preds = %entry
  %3 = load ptr, ptr %pointer.addr, align 8
  %4 = load i64, ptr %full_size, align 8
  %call1 = call ptr @realloc(ptr noundef %3, i64 noundef %4) #17
  store ptr %call1, ptr %allocated, align 8
  %5 = load ptr, ptr %allocated, align 8
  %cmp2 = icmp eq ptr %5, null
  %lnot = xor i1 %cmp2, true
  %lnot3 = xor i1 %lnot, true
  br i1 %lnot3, label %if.then4, label %if.end6

if.then4:                                         ; preds = %if.end
  call void @_ZN4node21LowMemoryNotificationEv()
  %6 = load ptr, ptr %pointer.addr, align 8
  %7 = load i64, ptr %full_size, align 8
  %call5 = call ptr @realloc(ptr noundef %6, i64 noundef %7) #17
  store ptr %call5, ptr %allocated, align 8
  br label %if.end6

if.end6:                                          ; preds = %if.then4, %if.end
  %8 = load ptr, ptr %allocated, align 8
  store ptr %8, ptr %retval, align 8
  br label %return

return:                                           ; preds = %if.end6, %if.then
  %9 = load ptr, ptr %retval, align 8
  ret ptr %9
}

; Function Attrs: mustprogress nounwind uwtable
define linkonce_odr dso_local noundef ptr @_ZN4node15UncheckedMallocIcEEPT_m(i64 noundef %n) #4 comdat {
entry:
  %n.addr = alloca i64, align 8
  store i64 %n, ptr %n.addr, align 8
  %0 = load i64, ptr %n.addr, align 8
  %call = call noundef ptr @_ZN4node16UncheckedReallocIcEEPT_S2_m(ptr noundef null, i64 noundef %0)
  ret ptr %call
}

; Function Attrs: mustprogress nounwind uwtable
define linkonce_odr dso_local noundef ptr @_ZN4node15UncheckedMallocEm(i64 noundef %n) #4 comdat {
entry:
  %n.addr = alloca i64, align 8
  store i64 %n, ptr %n.addr, align 8
  %0 = load i64, ptr %n.addr, align 8
  %call = call noundef ptr @_ZN4node15UncheckedMallocIcEEPT_m(i64 noundef %0)
  ret ptr %call
}

; Function Attrs: mustprogress nounwind uwtable
define internal noundef ptr @_ZN4node12_GLOBAL__N_117CompressionStreamINS0_20BrotliDecoderContextEE14AllocForBrotliEPvm(ptr noundef %data, i64 noundef %size) #4 align 2 {
entry:
  %this.addr.i = alloca ptr, align 8
  %__i.addr.i = alloca i64, align 8
  %__m.addr.i = alloca i32, align 4
  %.atomictmp.i = alloca i64, align 8
  %atomic-temp.i = alloca i64, align 8
  %retval = alloca ptr, align 8
  %data.addr = alloca ptr, align 8
  %size.addr = alloca i64, align 8
  %ctx = alloca ptr, align 8
  %memory = alloca ptr, align 8
  store ptr %data, ptr %data.addr, align 8
  store i64 %size, ptr %size.addr, align 8
  %0 = load i64, ptr %size.addr, align 8
  %add = add i64 %0, 8
  store i64 %add, ptr %size.addr, align 8
  %1 = load ptr, ptr %data.addr, align 8
  store ptr %1, ptr %ctx, align 8
  %2 = load i64, ptr %size.addr, align 8
  %call = call noundef ptr @_ZN4node15UncheckedMallocEm(i64 noundef %2)
  store ptr %call, ptr %memory, align 8
  %3 = load ptr, ptr %memory, align 8
  %cmp = icmp eq ptr %3, null
  %lnot = xor i1 %cmp, true
  %lnot1 = xor i1 %lnot, true
  br i1 %lnot1, label %if.then, label %if.end

if.then:                                          ; preds = %entry
  store ptr null, ptr %retval, align 8
  br label %return

if.end:                                           ; preds = %entry
  %4 = load i64, ptr %size.addr, align 8
  %5 = load ptr, ptr %memory, align 8
  store i64 %4, ptr %5, align 8
  %6 = load ptr, ptr %ctx, align 8
  %unreported_allocations_ = getelementptr inbounds %"class.node::(anonymous namespace)::CompressionStream.428", ptr %6, i32 0, i32 8
  %7 = load i64, ptr %size.addr, align 8
  store ptr %unreported_allocations_, ptr %this.addr.i, align 8
  store i64 %7, ptr %__i.addr.i, align 8
  store i32 0, ptr %__m.addr.i, align 4
  %this1.i = load ptr, ptr %this.addr.i, align 8
  %8 = load i32, ptr %__m.addr.i, align 4
  %9 = load i64, ptr %__i.addr.i, align 8
  store i64 %9, ptr %.atomictmp.i, align 8
  switch i32 %8, label %monotonic.i [
    i32 1, label %acquire.i
    i32 2, label %acquire.i
    i32 3, label %release.i
    i32 4, label %acqrel.i
    i32 5, label %seqcst.i
  ]

monotonic.i:                                      ; preds = %if.end
  %10 = load i64, ptr %.atomictmp.i, align 8
  %11 = atomicrmw add ptr %this1.i, i64 %10 monotonic, align 8
  store i64 %11, ptr %atomic-temp.i, align 8
  br label %_ZNSt13__atomic_baseIlE9fetch_addElSt12memory_order.exit

acquire.i:                                        ; preds = %if.end, %if.end
  %12 = load i64, ptr %.atomictmp.i, align 8
  %13 = atomicrmw add ptr %this1.i, i64 %12 acquire, align 8
  store i64 %13, ptr %atomic-temp.i, align 8
  br label %_ZNSt13__atomic_baseIlE9fetch_addElSt12memory_order.exit

release.i:                                        ; preds = %if.end
  %14 = load i64, ptr %.atomictmp.i, align 8
  %15 = atomicrmw add ptr %this1.i, i64 %14 release, align 8
  store i64 %15, ptr %atomic-temp.i, align 8
  br label %_ZNSt13__atomic_baseIlE9fetch_addElSt12memory_order.exit

acqrel.i:                                         ; preds = %if.end
  %16 = load i64, ptr %.atomictmp.i, align 8
  %17 = atomicrmw add ptr %this1.i, i64 %16 acq_rel, align 8
  store i64 %17, ptr %atomic-temp.i, align 8
  br label %_ZNSt13__atomic_baseIlE9fetch_addElSt12memory_order.exit

seqcst.i:                                         ; preds = %if.end
  %18 = load i64, ptr %.atomictmp.i, align 8
  %19 = atomicrmw add ptr %this1.i, i64 %18 seq_cst, align 8
  store i64 %19, ptr %atomic-temp.i, align 8
  br label %_ZNSt13__atomic_baseIlE9fetch_addElSt12memory_order.exit

_ZNSt13__atomic_baseIlE9fetch_addElSt12memory_order.exit: ; preds = %seqcst.i, %acqrel.i, %release.i, %acquire.i, %monotonic.i
  %20 = load ptr, ptr %memory, align 8
  %add.ptr = getelementptr inbounds i8, ptr %20, i64 8
  store ptr %add.ptr, ptr %retval, align 8
  br label %return

return:                                           ; preds = %_ZNSt13__atomic_baseIlE9fetch_addElSt12memory_order.exit, %if.then
  %21 = load ptr, ptr %retval, align 8
  ret ptr %21
}